; Function Attrs: mustprogress null_pointer_is_valid sspstrong uwtable
define void @_ZN14InterfaceFrame29on_warningLabel_linkActivatedERK7QString(ptr noundef align 8 dereferenceable_or_null(208) %0, ptr noundef align 8 dereferenceable(24) %1) local_unnamed_addr #2 align 2 personality ptr @__gxx_personality_v0 {
  %3 = alloca %class.QString, align 8
  %4 = alloca %class.QString, align 8
  %5 = alloca %class.QUrl, align 8
  call void @llvm.lifetime.start.p0(i64 24, ptr nonnull %4) #28
  %6 = load ptr, ptr @no_capture_link, align 8
  call void @llvm.lifetime.start.p0(i64 24, ptr nonnull %3) #28
  %.not.i.i = icmp eq ptr %6, null
  br i1 %.not.i.i, label %_ZN7QStringC2EPKc.exit, label %.split.i.i

.split.i.i:                                       ; preds = %2
  %7 = tail call noundef i64 @strlen(ptr noundef nonnull dereferenceable(1) %6) #28
  br label %_ZN7QStringC2EPKc.exit

_ZN7QStringC2EPKc.exit:                           ; preds = %2, %.split.i.i
  %.sink5.i.i = phi i64 [ %7, %.split.i.i ], [ 0, %2 ]
  call void @_ZN7QString8fromUtf8E14QByteArrayView(ptr dead_on_unwind nonnull writable sret(%class.QString) align 8 %3, i64 %.sink5.i.i, ptr %6)
  %8 = load ptr, ptr %3, align 8
  store ptr %8, ptr %4, align 8
  %9 = getelementptr inbounds nuw i8, ptr %4, i64 8
  %10 = getelementptr inbounds nuw i8, ptr %3, i64 8
  %11 = load ptr, ptr %10, align 8
  store ptr %11, ptr %9, align 8
  %12 = getelementptr inbounds nuw i8, ptr %4, i64 16
  %13 = getelementptr inbounds nuw i8, ptr %3, i64 16
  %14 = load i64, ptr %13, align 8
  store i64 %14, ptr %12, align 8
  call void @llvm.lifetime.end.p0(i64 24, ptr nonnull %3) #28
  %15 = call noundef i32 @_ZNK7QString7compareERKS_N2Qt15CaseSensitivityE(ptr noundef align 8 dereferenceable_or_null(24) %1, ptr noundef nonnull align 8 dereferenceable(24) %4, i32 noundef 1) #28
  %16 = icmp eq i32 %15, 0
  %17 = load ptr, ptr %4, align 8
  %.not.i.i.i = icmp eq ptr %17, null
  br i1 %.not.i.i.i, label %_ZN7QStringD2Ev.exit, label %_ZN17QArrayDataPointerIDsE5derefEv.exit.i.i

_ZN17QArrayDataPointerIDsE5derefEv.exit.i.i:      ; preds = %_ZN7QStringC2EPKc.exit
  %18 = atomicrmw sub ptr %17, i32 1 seq_cst, align 4
  %.not.i.i4 = icmp eq i32 %18, 1
  br i1 %.not.i.i4, label %19, label %_ZN7QStringD2Ev.exit

19:                                               ; preds = %_ZN17QArrayDataPointerIDsE5derefEv.exit.i.i
  %20 = load ptr, ptr %4, align 8
  call void @_ZN10QArrayData10deallocateEPS_xx(ptr noundef %20, i64 noundef 2, i64 noundef 8) #28
  br label %_ZN7QStringD2Ev.exit

_ZN7QStringD2Ev.exit:                             ; preds = %_ZN7QStringC2EPKc.exit, %_ZN17QArrayDataPointerIDsE5derefEv.exit.i.i, %19
  call void @llvm.lifetime.end.p0(i64 24, ptr nonnull %4) #28
  br i1 %16, label %21, label %22

21:                                               ; preds = %_ZN7QStringD2Ev.exit
  store i8 0, ptr getelementptr inbounds nuw (i8, ptr @recent, i64 129), align 1
  call void @_ZN14InterfaceFrame25resetInterfaceTreeDisplayEv(ptr noundef align 8 dereferenceable_or_null(208) %0)
  br label %27

22:                                               ; preds = %_ZN7QStringD2Ev.exit
  call void @llvm.lifetime.start.p0(i64 8, ptr nonnull %5) #28
  call void @_ZN4QUrlC1ERK7QStringNS_11ParsingModeE(ptr noundef nonnull align 8 dereferenceable_or_null(8) %5, ptr noundef align 8 dereferenceable(24) %1, i32 noundef 0)
  %23 = invoke noundef zeroext i1 @_ZN16QDesktopServices7openUrlERK4QUrl(ptr noundef nonnull align 8 dereferenceable(8) %5)
          to label %24 unwind label %25

24:                                               ; preds = %22
  call void @_ZN4QUrlD1Ev(ptr noundef nonnull align 8 dereferenceable_or_null(8) %5) #28
  call void @llvm.lifetime.end.p0(i64 8, ptr nonnull %5) #28
  br label %27

25:                                               ; preds = %22
  %26 = landingpad { ptr, i32 }
          cleanup
  call void @_ZN4QUrlD1Ev(ptr noundef nonnull align 8 dereferenceable_or_null(8) %5) #28
  call void @llvm.lifetime.end.p0(i64 8, ptr nonnull %5) #28
  resume { ptr, i32 } %26

27:                                               ; preds = %24, %21
  ret void
}